; Function Attrs: mustprogress uwtable
define hidden void @_ZN18quantifier_hoister15pull_quantifierEbR7obj_refI4expr11ast_managerER10ref_vectorI3appS2_Ebb(ptr noundef nonnull readonly align 8 captures(none) dereferenceable(8) %0, i1 noundef zeroext %1, ptr noundef nonnull align 8 captures(none) dereferenceable(16) %2, ptr noundef nonnull align 8 dereferenceable(16) %3, i1 noundef zeroext %4, i1 noundef zeroext %5) local_unnamed_addr #3 align 2 personality ptr @__gxx_personality_v0 {
  %7 = alloca i32, align 4
  %8 = alloca %class.obj_ref, align 8
  %9 = load ptr, ptr %0, align 8, !tbaa !3
  call void @llvm.lifetime.start.p0(i64 4, ptr nonnull %7) #18
  %10 = select i1 %1, i32 16, i32 32
  store i32 %10, ptr %7, align 4, !tbaa !27
  call void @llvm.lifetime.start.p0(i64 16, ptr nonnull %8) #18
  %11 = load ptr, ptr %9, align 8, !tbaa !30
  store ptr null, ptr %8, align 8, !tbaa !32
  %12 = getelementptr inbounds nuw i8, ptr %8, i64 8
  store ptr %11, ptr %12, align 8, !tbaa !9
  %13 = load ptr, ptr %2, align 8, !tbaa !32
  invoke void @_ZN18quantifier_hoister4impl15pull_quantifierEP4exprRNS0_15quantifier_typeER10ref_vectorI3app11ast_managerER7obj_refIS1_S7_Ebb(ptr noundef nonnull align 8 dereferenceable(80) %9, ptr noundef %13, ptr noundef nonnull align 4 dereferenceable(4) %7, ptr noundef nonnull align 8 dereferenceable(16) %3, ptr noundef nonnull align 8 dereferenceable(16) %8, i1 noundef zeroext %4, i1 noundef zeroext %5)
          to label %14 unwind label %27

14:                                               ; preds = %6
  %15 = load ptr, ptr %2, align 8, !tbaa !35
  %16 = load ptr, ptr %8, align 8, !tbaa !35
  store ptr %16, ptr %2, align 8, !tbaa !35
  store ptr %15, ptr %8, align 8, !tbaa !35
  %.not.i.i.i.i = icmp eq ptr %15, null
  br i1 %.not.i.i.i.i, label %_ZN18quantifier_hoister4impl15pull_quantifierEbR7obj_refI4expr11ast_managerER10ref_vectorI3appS3_Ebb.exit, label %17

17:                                               ; preds = %14
  %18 = load ptr, ptr %12, align 8, !tbaa !36
  %19 = getelementptr inbounds nuw i8, ptr %15, i64 8
  %20 = load i32, ptr %19, align 4, !tbaa !37
  %21 = add i32 %20, -1
  store i32 %21, ptr %19, align 4, !tbaa !37
  %22 = icmp eq i32 %21, 0
  br i1 %22, label %23, label %_ZN18quantifier_hoister4impl15pull_quantifierEbR7obj_refI4expr11ast_managerER10ref_vectorI3appS3_Ebb.exit

23:                                               ; preds = %17
  invoke void @_ZN11ast_manager11delete_nodeEP3ast(ptr noundef nonnull align 8 dereferenceable(976) %18, ptr noundef nonnull %15)
          to label %_ZN18quantifier_hoister4impl15pull_quantifierEbR7obj_refI4expr11ast_managerER10ref_vectorI3appS3_Ebb.exit unwind label %24

24:                                               ; preds = %23
  %25 = landingpad { ptr, i32 }
          catch ptr null
  %26 = extractvalue { ptr, i32 } %25, 0
  call void @__clang_call_terminate(ptr %26) #19
  unreachable

27:                                               ; preds = %6
  %28 = landingpad { ptr, i32 }
          cleanup
  call void @_ZN7obj_refI4expr11ast_managerED2Ev(ptr noundef nonnull align 8 dereferenceable(16) %8) #18
  call void @llvm.lifetime.end.p0(i64 16, ptr nonnull %8) #18
  call void @llvm.lifetime.end.p0(i64 4, ptr nonnull %7) #18
  resume { ptr, i32 } %28

_ZN18quantifier_hoister4impl15pull_quantifierEbR7obj_refI4expr11ast_managerER10ref_vectorI3appS3_Ebb.exit: ; preds = %14, %17, %23
  call void @llvm.lifetime.end.p0(i64 16, ptr nonnull %8) #18
  call void @llvm.lifetime.end.p0(i64 4, ptr nonnull %7) #18
  ret void
}